target datalayout = "e-m:e-p270:32:32-p271:32:32-p272:64:64-i64:64-i128:128-f80:128-n8:16:32:64-S128"
target triple = "x86_64-pc-linux-gnu"

; Function Attrs: alwaysinline nounwind willreturn memory(none) uwtable
define internal i32 @av_clip_uintp2_c(i32 noundef %0, i32 noundef %1) #4 {
  %3 = alloca i32, align 4
  %4 = alloca i32, align 4
  %5 = alloca i32, align 4
  store i32 %0, ptr %4, align 4, !tbaa !18
  store i32 %1, ptr %5, align 4, !tbaa !18
  %6 = load i32, ptr %4, align 4, !tbaa !18
  %7 = load i32, ptr %5, align 4, !tbaa !18
  %8 = shl i32 1, %7
  %9 = sub i32 %8, 1
  %10 = xor i32 %9, -1
  %11 = and i32 %6, %10
  %12 = icmp ne i32 %11, 0
  br i1 %12, label %13, label %21

13:                                               ; preds = %2
  %14 = load i32, ptr %4, align 4, !tbaa !18
  %15 = xor i32 %14, -1
  %16 = ashr i32 %15, 31
  %17 = load i32, ptr %5, align 4, !tbaa !18
  %18 = shl i32 1, %17
  %19 = sub i32 %18, 1
  %20 = and i32 %16, %19
  store i32 %20, ptr %3, align 4
  br label %23

21:                                               ; preds = %2
  %22 = load i32, ptr %4, align 4, !tbaa !18
  store i32 %22, ptr %3, align 4
  br label %23

23:                                               ; preds = %21, %13
  %24 = load i32, ptr %3, align 4
  ret i32 %24
}

; Function Attrs: alwaysinline nounwind uwtable
define internal void @iadst4_1d(ptr noundef %0, i64 noundef %1, ptr noundef %2, i32 noundef %3) #5 {
  %5 = alloca ptr, align 8
  %6 = alloca i64, align 8
  %7 = alloca ptr, align 8
  %8 = alloca i32, align 4
  %9 = alloca i64, align 8
  %10 = alloca i64, align 8
  %11 = alloca i64, align 8
  %12 = alloca i64, align 8
  store ptr %0, ptr %5, align 8, !tbaa !35
  store i64 %1, ptr %6, align 8, !tbaa !12
  store ptr %2, ptr %7, align 8, !tbaa !35
  store i32 %3, ptr %8, align 4, !tbaa !18
  call void @llvm.lifetime.start.p0(i64 8, ptr %9) #9
  call void @llvm.lifetime.start.p0(i64 8, ptr %10) #9
  call void @llvm.lifetime.start.p0(i64 8, ptr %11) #9
  call void @llvm.lifetime.start.p0(i64 8, ptr %12) #9
  %13 = load ptr, ptr %5, align 8, !tbaa !35
  %14 = load i64, ptr %6, align 8, !tbaa !12
  %15 = mul nsw i64 0, %14
  %16 = getelementptr inbounds i32, ptr %13, i64 %15
  %17 = load i32, ptr %16, align 4, !tbaa !18
  %18 = sext i32 %17 to i64
  %19 = mul nsw i64 5283, %18
  %20 = load ptr, ptr %5, align 8, !tbaa !35
  %21 = load i64, ptr %6, align 8, !tbaa !12
  %22 = mul nsw i64 2, %21
  %23 = getelementptr inbounds i32, ptr %20, i64 %22
  %24 = load i32, ptr %23, align 4, !tbaa !18
  %25 = sext i32 %24 to i64
  %26 = mul nsw i64 15212, %25
  %27 = add nsw i64 %19, %26
  %28 = load ptr, ptr %5, align 8, !tbaa !35
  %29 = load i64, ptr %6, align 8, !tbaa !12
  %30 = mul nsw i64 3, %29
  %31 = getelementptr inbounds i32, ptr %28, i64 %30
  %32 = load i32, ptr %31, align 4, !tbaa !18
  %33 = sext i32 %32 to i64
  %34 = mul nsw i64 9929, %33
  %35 = add nsw i64 %27, %34
  store i64 %35, ptr %9, align 8, !tbaa !12
  %36 = load ptr, ptr %5, align 8, !tbaa !35
  %37 = load i64, ptr %6, align 8, !tbaa !12
  %38 = mul nsw i64 0, %37
  %39 = getelementptr inbounds i32, ptr %36, i64 %38
  %40 = load i32, ptr %39, align 4, !tbaa !18
  %41 = sext i32 %40 to i64
  %42 = mul nsw i64 9929, %41
  %43 = load ptr, ptr %5, align 8, !tbaa !35
  %44 = load i64, ptr %6, align 8, !tbaa !12
  %45 = mul nsw i64 2, %44
  %46 = getelementptr inbounds i32, ptr %43, i64 %45
  %47 = load i32, ptr %46, align 4, !tbaa !18
  %48 = sext i32 %47 to i64
  %49 = mul nsw i64 5283, %48
  %50 = sub nsw i64 %42, %49
  %51 = load ptr, ptr %5, align 8, !tbaa !35
  %52 = load i64, ptr %6, align 8, !tbaa !12
  %53 = mul nsw i64 3, %52
  %54 = getelementptr inbounds i32, ptr %51, i64 %53
  %55 = load i32, ptr %54, align 4, !tbaa !18
  %56 = sext i32 %55 to i64
  %57 = mul nsw i64 15212, %56
  %58 = sub nsw i64 %50, %57
  store i64 %58, ptr %10, align 8, !tbaa !12
  %59 = load ptr, ptr %5, align 8, !tbaa !35
  %60 = load i64, ptr %6, align 8, !tbaa !12
  %61 = mul nsw i64 0, %60
  %62 = getelementptr inbounds i32, ptr %59, i64 %61
  %63 = load i32, ptr %62, align 4, !tbaa !18
  %64 = sext i32 %63 to i64
  %65 = load ptr, ptr %5, align 8, !tbaa !35
  %66 = load i64, ptr %6, align 8, !tbaa !12
  %67 = mul nsw i64 2, %66
  %68 = getelementptr inbounds i32, ptr %65, i64 %67
  %69 = load i32, ptr %68, align 4, !tbaa !18
  %70 = sext i32 %69 to i64
  %71 = sub nsw i64 %64, %70
  %72 = load ptr, ptr %5, align 8, !tbaa !35
  %73 = load i64, ptr %6, align 8, !tbaa !12
  %74 = mul nsw i64 3, %73
  %75 = getelementptr inbounds i32, ptr %72, i64 %74
  %76 = load i32, ptr %75, align 4, !tbaa !18
  %77 = sext i32 %76 to i64
  %78 = add nsw i64 %71, %77
  %79 = mul nsw i64 13377, %78
  store i64 %79, ptr %11, align 8, !tbaa !12
  %80 = load ptr, ptr %5, align 8, !tbaa !35
  %81 = load i64, ptr %6, align 8, !tbaa !12
  %82 = mul nsw i64 1, %81
  %83 = getelementptr inbounds i32, ptr %80, i64 %82
  %84 = load i32, ptr %83, align 4, !tbaa !18
  %85 = sext i32 %84 to i64
  %86 = mul nsw i64 13377, %85
  store i64 %86, ptr %12, align 8, !tbaa !12
  %87 = load i64, ptr %9, align 8, !tbaa !12
  %88 = load i64, ptr %12, align 8, !tbaa !12
  %89 = add nsw i64 %87, %88
  %90 = add nsw i64 %89, 8192
  %91 = ashr i64 %90, 14
  %92 = trunc i64 %91 to i32
  %93 = load ptr, ptr %7, align 8, !tbaa !35
  %94 = getelementptr inbounds i32, ptr %93, i64 0
  store i32 %92, ptr %94, align 4, !tbaa !18
  %95 = load i64, ptr %10, align 8, !tbaa !12
  %96 = load i64, ptr %12, align 8, !tbaa !12
  %97 = add nsw i64 %95, %96
  %98 = add nsw i64 %97, 8192
  %99 = ashr i64 %98, 14
  %100 = trunc i64 %99 to i32
  %101 = load ptr, ptr %7, align 8, !tbaa !35
  %102 = getelementptr inbounds i32, ptr %101, i64 1
  store i32 %100, ptr %102, align 4, !tbaa !18
  %103 = load i64, ptr %11, align 8, !tbaa !12
  %104 = add nsw i64 %103, 8192
  %105 = ashr i64 %104, 14
  %106 = trunc i64 %105 to i32
  %107 = load ptr, ptr %7, align 8, !tbaa !35
  %108 = getelementptr inbounds i32, ptr %107, i64 2
  store i32 %106, ptr %108, align 4, !tbaa !18
  %109 = load i64, ptr %9, align 8, !tbaa !12
  %110 = load i64, ptr %10, align 8, !tbaa !12
  %111 = add nsw i64 %109, %110
  %112 = load i64, ptr %12, align 8, !tbaa !12
  %113 = sub nsw i64 %111, %112
  %114 = add nsw i64 %113, 8192
  %115 = ashr i64 %114, 14
  %116 = trunc i64 %115 to i32
  %117 = load ptr, ptr %7, align 8, !tbaa !35
  %118 = getelementptr inbounds i32, ptr %117, i64 3
  store i32 %116, ptr %118, align 4, !tbaa !18
  call void @llvm.lifetime.end.p0(i64 8, ptr %12) #9
  call void @llvm.lifetime.end.p0(i64 8, ptr %11) #9
  call void @llvm.lifetime.end.p0(i64 8, ptr %10) #9
  call void @llvm.lifetime.end.p0(i64 8, ptr %9) #9
  ret void
}

; Function Attrs: nounwind uwtable
define internal void @iadst_iadst_4x4_add_c(ptr noundef %0, i64 noundef %1, ptr noundef %2, i32 noundef %3) #2 {
  %5 = alloca ptr, align 8
  %6 = alloca i64, align 8
  %7 = alloca ptr, align 8
  %8 = alloca i32, align 4
  %9 = alloca i32, align 4
  %10 = alloca i32, align 4
  %11 = alloca ptr, align 8
  %12 = alloca ptr, align 8
  %13 = alloca [16 x i32], align 16
  %14 = alloca [4 x i32], align 16
  store ptr %0, ptr %5, align 8, !tbaa !10
  store i64 %1, ptr %6, align 8, !tbaa !12
  store ptr %2, ptr %7, align 8, !tbaa !14
  store i32 %3, ptr %8, align 4, !tbaa !18
  call void @llvm.lifetime.start.p0(i64 4, ptr %9) #9
  call void @llvm.lifetime.start.p0(i64 4, ptr %10) #9
  call void @llvm.lifetime.start.p0(i64 8, ptr %11) #9
  %15 = load ptr, ptr %5, align 8, !tbaa !10
  store ptr %15, ptr %11, align 8, !tbaa !14
  call void @llvm.lifetime.start.p0(i64 8, ptr %12) #9
  %16 = load ptr, ptr %7, align 8, !tbaa !14
  store ptr %16, ptr %12, align 8, !tbaa !35
  call void @llvm.lifetime.start.p0(i64 64, ptr %13) #9
  call void @llvm.lifetime.start.p0(i64 16, ptr %14) #9
  %17 = load i64, ptr %6, align 8, !tbaa !12
  %18 = udiv i64 %17, 2
  store i64 %18, ptr %6, align 8, !tbaa !12
  store i32 0, ptr %9, align 4, !tbaa !18
  br label %19

19:                                               ; preds = %32, %4
  %20 = load i32, ptr %9, align 4, !tbaa !18
  %21 = icmp slt i32 %20, 4
  br i1 %21, label %22, label %35

22:                                               ; preds = %19
  %23 = load ptr, ptr %12, align 8, !tbaa !35
  %24 = load i32, ptr %9, align 4, !tbaa !18
  %25 = sext i32 %24 to i64
  %26 = getelementptr inbounds i32, ptr %23, i64 %25
  %27 = getelementptr inbounds [16 x i32], ptr %13, i64 0, i64 0
  %28 = load i32, ptr %9, align 4, !tbaa !18
  %29 = mul nsw i32 %28, 4
  %30 = sext i32 %29 to i64
  %31 = getelementptr inbounds i32, ptr %27, i64 %30
  call void @iadst4_1d(ptr noundef %26, i64 noundef 4, ptr noundef %31, i32 noundef 0)
  br label %32

32:                                               ; preds = %22
  %33 = load i32, ptr %9, align 4, !tbaa !18
  %34 = add nsw i32 %33, 1
  store i32 %34, ptr %9, align 4, !tbaa !18
  br label %19, !llvm.loop !48

35:                                               ; preds = %19
  %36 = load ptr, ptr %12, align 8, !tbaa !35
  call void @llvm.memset.p0.i64(ptr align 4 %36, i8 0, i64 64, i1 false)
  store i32 0, ptr %9, align 4, !tbaa !18
  br label %37

37:                                               ; preds = %79, %35
  %38 = load i32, ptr %9, align 4, !tbaa !18
  %39 = icmp slt i32 %38, 4
  br i1 %39, label %40, label %82

40:                                               ; preds = %37
  %41 = getelementptr inbounds [16 x i32], ptr %13, i64 0, i64 0
  %42 = load i32, ptr %9, align 4, !tbaa !18
  %43 = sext i32 %42 to i64
  %44 = getelementptr inbounds i32, ptr %41, i64 %43
  %45 = getelementptr inbounds [4 x i32], ptr %14, i64 0, i64 0
  call void @iadst4_1d(ptr noundef %44, i64 noundef 4, ptr noundef %45, i32 noundef 1)
  store i32 0, ptr %10, align 4, !tbaa !18
  br label %46

46:                                               ; preds = %73, %40
  %47 = load i32, ptr %10, align 4, !tbaa !18
  %48 = icmp slt i32 %47, 4
  br i1 %48, label %49, label %76

49:                                               ; preds = %46
  %50 = load ptr, ptr %11, align 8, !tbaa !14
  %51 = load i32, ptr %10, align 4, !tbaa !18
  %52 = sext i32 %51 to i64
  %53 = load i64, ptr %6, align 8, !tbaa !12
  %54 = mul nsw i64 %52, %53
  %55 = getelementptr inbounds i16, ptr %50, i64 %54
  %56 = load i16, ptr %55, align 2, !tbaa !16
  %57 = zext i16 %56 to i32
  %58 = load i32, ptr %10, align 4, !tbaa !18
  %59 = sext i32 %58 to i64
  %60 = getelementptr inbounds [4 x i32], ptr %14, i64 0, i64 %59
  %61 = load i32, ptr %60, align 4, !tbaa !18
  %62 = add i32 %61, 8
  %63 = ashr i32 %62, 4
  %64 = add nsw i32 %57, %63
  %65 = call i32 @av_clip_uintp2_c(i32 noundef %64, i32 noundef 12) #10
  %66 = trunc i32 %65 to i16
  %67 = load ptr, ptr %11, align 8, !tbaa !14
  %68 = load i32, ptr %10, align 4, !tbaa !18
  %69 = sext i32 %68 to i64
  %70 = load i64, ptr %6, align 8, !tbaa !12
  %71 = mul nsw i64 %69, %70
  %72 = getelementptr inbounds i16, ptr %67, i64 %71
  store i16 %66, ptr %72, align 2, !tbaa !16
  br label %73

73:                                               ; preds = %49
  %74 = load i32, ptr %10, align 4, !tbaa !18
  %75 = add nsw i32 %74, 1
  store i32 %75, ptr %10, align 4, !tbaa !18
  br label %46, !llvm.loop !49

76:                                               ; preds = %46
  %77 = load ptr, ptr %11, align 8, !tbaa !14
  %78 = getelementptr inbounds nuw i16, ptr %77, i32 1
  store ptr %78, ptr %11, align 8, !tbaa !14
  br label %79

79:                                               ; preds = %76
  %80 = load i32, ptr %9, align 4, !tbaa !18
  %81 = add nsw i32 %80, 1
  store i32 %81, ptr %9, align 4, !tbaa !18
  br label %37, !llvm.loop !50

82:                                               ; preds = %37
  call void @llvm.lifetime.end.p0(i64 16, ptr %14) #9
  call void @llvm.lifetime.end.p0(i64 64, ptr %13) #9
  call void @llvm.lifetime.end.p0(i64 8, ptr %12) #9
  call void @llvm.lifetime.end.p0(i64 8, ptr %11) #9
  call void @llvm.lifetime.end.p0(i64 4, ptr %10) #9
  call void @llvm.lifetime.end.p0(i64 4, ptr %9) #9
  ret void
}